(dp1
S'allCals'
p2
(lp3
(dp4
Vkind
p5
Vcalendar#calendarListEntry
p6
sVforegroundColor
p7
V#000000
p8
sVdefaultReminders
p9
(lp10
(dp11
Vminutes
p12
I30
sVmethod
p13
Vpopup
p14
sasVprimary
p15
I01
sVcolorId
p16
V8
sVselected
p17
I01
sVnotificationSettings
p18
(dp19
Vnotifications
p20
(lp21
(dp22
Vtype
p23
VeventCreation
p24
sVmethod
p25
Vemail
p26
sassVsummary
p27
Veoin.keith.boyle@gmail.com
p28
sVetag
p29
V"1490133168357000"
p30
sVbackgroundColor
p31
V#16a765
p32
sVtimeZone
p33
VAmerica/Chicago
p34
sVaccessRole
p35
Vowner
p36
sVid
p37
Veoin.keith.boyle@gmail.com
p38
sa(dp39
Vkind
p40
Vcalendar#calendarListEntry
p41
sVforegroundColor
p42
V#000000
p43
sVdefaultReminders
p44
(lp45
sVcolorId
p46
V23
p47
sVselected
p48
I01
sVnotificationSettings
p49
(dp50
Vnotifications
p51
(lp52
(dp53
Vtype
p54
VeventCreation
p55
sVmethod
p56
Vemail
p57
sassVsummary
p58
Vcathymoritz3@gmail.com
p59
sVetag
p60
V"1487336584945000"
p61
sVbackgroundColor
p62
V#af44af
p63
sVtimeZone
p64
VAmerica/Chicago
p65
sVaccessRole
p66
Vowner
p67
sVid
p68
Vcathymoritz3@gmail.com
p69
sa(dp70
Vkind
p71
Vcalendar#calendarListEntry
p72
sVforegroundColor
p73
V#000000
p74
sVdefaultReminders
p75
(lp76
sVdescription
p77
VMoon phases, lunar eclipses, perigee & apogee. Update weekly.
p78
sVcolorId
p79
V20
p80
sVselected
p81
I01
sVsummary
p82
VMoon
p83
sVetag
p84
V"1490191539013000"
p85
sVbackgroundColor
p86
V#cabdbf
p87
sVsummaryOverride
p88
Vmoon
p89
sVtimeZone
p90
VUTC
p91
sVaccessRole
p92
Vreader
p93
sVid
p94
Varctvtg9iaklhqrpqeuque5qdrr1slj2@import.calendar.google.com
p95
sa(dp96
Vkind
p97
Vcalendar#calendarListEntry
p98
sVforegroundColor
p99
V#000000
p100
sVdefaultReminders
p101
(lp102
sVdescription
p103
VPST Embedded calendar in Nancy and Shawn's blogs.
p104
sVcolorId
p105
V20
p106
sVselected
p107
I01
sVsummary
p108
VTransit Calendar
p109
sVetag
p110
V"1492277357613000"
p111
sVlocation
p112
VLos Angeles, CA
p113
sVbackgroundColor
p114
V#cabdbf
p115
sVtimeZone
p116
VAmerica/Los_Angeles
p117
sVaccessRole
p118
Vreader
p119
sVid
p120
Vqf8vj00k7jm0o7kmpu4e6b06dk@group.calendar.google.com
p121
sa(dp122
Vkind
p123
Vcalendar#calendarListEntry
p124
sVforegroundColor
p125
V#000000
p126
sVdefaultReminders
p127
(lp128
(dp129
Vminutes
p130
I1440
sVmethod
p131
Vpopup
p132
sasVcolorId
p133
V15
p134
sVselected
p135
I01
sVsummary
p136
VEoin Keith Boyle's Facebook Events
p137
sVetag
p138
V"1490191589936000"
p139
sVbackgroundColor
p140
V#9fc6e7
p141
sVsummaryOverride
p142
VFB
p143
sVtimeZone
p144
VUTC
p145
sVaccessRole
p146
Vreader
p147
sVid
p148
Vareeqot02au4dtg6v0mkngrjecck714h@import.calendar.google.com
p149
sa(dp150
Vkind
p151
Vcalendar#calendarListEntry
p152
sVforegroundColor
p153
V#000000
p154
sVdefaultReminders
p155
(lp156
sVcolorId
p157
V8
sVselected
p158
I01
sVsummary
p159
VHolidays in United States
p160
sVetag
p161
V"1490420639749000"
p162
sVbackgroundColor
p163
V#16a765
p164
sVtimeZone
p165
VAmerica/Chicago
p166
sVaccessRole
p167
Vreader
p168
sVid
p169
Ven.usa#holiday@group.v.calendar.google.com
p170
sa(dp171
Vkind
p172
Vcalendar#calendarListEntry
p173
sVforegroundColor
p174
V#000000
p175
sVdefaultReminders
p176
(lp177
sVcolorId
p178
V14
p179
sVselected
p180
I01
sVsummary
p181
VWeather: 78759
p182
sVetag
p183
V"1493510056348000"
p184
sVbackgroundColor
p185
V#9fe1e7
p186
sVtimeZone
p187
VAmerica/Chicago
p188
sVaccessRole
p189
Vreader
p190
sVid
p191
Vp#weather@group.v.calendar.google.com
p192
sas.